target datalayout = "e-m:e-p270:32:32-p271:32:32-p272:64:64-i64:64-i128:128-f80:128-n8:16:32:64-S128"
target triple = "x86_64-pc-linux-gnu"

; Function Attrs: nounwind uwtable
define hidden i32 @uv__close_nocancel(i32 noundef %0) #0 {
  %2 = alloca i32, align 4
  store i32 %0, ptr %2, align 4
  %3 = load i32, ptr %2, align 4
  %4 = call i64 (i64, ...) @syscall(i64 noundef 3, i32 noundef %3) #11
  %5 = trunc i64 %4 to i32
  ret i32 %5
}

; Function Attrs: nounwind uwtable
define hidden i32 @uv__close_nocheckstdio(i32 noundef %0) #0 {
  %2 = alloca i32, align 4
  %3 = alloca i32, align 4
  %4 = alloca i32, align 4
  store i32 %0, ptr %2, align 4
  call void @llvm.lifetime.start.p0(i64 4, ptr %3) #11
  call void @llvm.lifetime.start.p0(i64 4, ptr %4) #11
  %5 = call ptr @__errno_location() #12
  %6 = load i32, ptr %5, align 4
  store i32 %6, ptr %3, align 4
  %7 = load i32, ptr %2, align 4
  %8 = call i32 @uv__close_nocancel(i32 noundef %7)
  store i32 %8, ptr %4, align 4
  %9 = load i32, ptr %4, align 4
  %10 = icmp eq i32 %9, -1
  br i1 %10, label %11, label %24

11:                                               ; preds = %1
  %12 = call ptr @__errno_location() #12
  %13 = load i32, ptr %12, align 4
  %14 = sub nsw i32 0, %13
  store i32 %14, ptr %4, align 4
  %15 = load i32, ptr %4, align 4
  %16 = icmp eq i32 %15, -4
  br i1 %16, label %20, label %17

17:                                               ; preds = %11
  %18 = load i32, ptr %4, align 4
  %19 = icmp eq i32 %18, -115
  br i1 %19, label %20, label %21

20:                                               ; preds = %17, %11
  store i32 0, ptr %4, align 4
  br label %21

21:                                               ; preds = %20, %17
  %22 = load i32, ptr %3, align 4
  %23 = call ptr @__errno_location() #12
  store i32 %22, ptr %23, align 4
  br label %24

24:                                               ; preds = %21, %1
  %25 = load i32, ptr %4, align 4
  call void @llvm.lifetime.end.p0(i64 4, ptr %4) #11
  call void @llvm.lifetime.end.p0(i64 4, ptr %3) #11
  ret i32 %25
}

; Function Attrs: nounwind uwtable
define hidden i32 @uv__close(i32 noundef %0) #0 {
  %2 = alloca i32, align 4
  store i32 %0, ptr %2, align 4
  %3 = load i32, ptr %2, align 4
  %4 = call i32 @uv__close_nocheckstdio(i32 noundef %3)
  ret i32 %4
}

; Function Attrs: nounwind uwtable
define hidden i32 @uv__cloexec(i32 noundef %0, i32 noundef %1) #0 {
  %3 = alloca i32, align 4
  %4 = alloca i32, align 4
  %5 = alloca i32, align 4
  %6 = alloca i32, align 4
  %7 = alloca i32, align 4
  %8 = alloca i32, align 4
  store i32 %0, ptr %4, align 4
  store i32 %1, ptr %5, align 4
  call void @llvm.lifetime.start.p0(i64 4, ptr %6) #11
  call void @llvm.lifetime.start.p0(i64 4, ptr %7) #11
  store i32 0, ptr %6, align 4
  %9 = load i32, ptr %5, align 4
  %10 = icmp ne i32 %9, 0
  br i1 %10, label %11, label %12

11:                                               ; preds = %2
  store i32 1, ptr %6, align 4
  br label %12

12:                                               ; preds = %11, %2
  br label %13

13:                                               ; preds = %24, %12
  %14 = load i32, ptr %4, align 4
  %15 = load i32, ptr %6, align 4
  %16 = call i32 (i32, i32, ...) @fcntl64(i32 noundef %14, i32 noundef 2, i32 noundef %15)
  store i32 %16, ptr %7, align 4
  br label %17

17:                                               ; preds = %13
  %18 = load i32, ptr %7, align 4
  %19 = icmp eq i32 %18, -1
  br i1 %19, label %20, label %24

20:                                               ; preds = %17
  %21 = call ptr @__errno_location() #12
  %22 = load i32, ptr %21, align 4
  %23 = icmp eq i32 %22, 4
  br label %24

24:                                               ; preds = %20, %17
  %25 = phi i1 [ false, %17 ], [ %23, %20 ]
  br i1 %25, label %13, label %26

26:                                               ; preds = %24
  %27 = load i32, ptr %7, align 4
  %28 = icmp ne i32 %27, 0
  br i1 %28, label %29, label %33

29:                                               ; preds = %26
  %30 = call ptr @__errno_location() #12
  %31 = load i32, ptr %30, align 4
  %32 = sub nsw i32 0, %31
  store i32 %32, ptr %3, align 4
  store i32 1, ptr %8, align 4
  br label %34

33:                                               ; preds = %26
  store i32 0, ptr %3, align 4
  store i32 1, ptr %8, align 4
  br label %34

34:                                               ; preds = %33, %29
  call void @llvm.lifetime.end.p0(i64 4, ptr %7) #11
  call void @llvm.lifetime.end.p0(i64 4, ptr %6) #11
  %35 = load i32, ptr %3, align 4
  ret i32 %35
}

; Function Attrs: nounwind uwtable
define hidden i32 @uv__nonblock_ioctl(i32 noundef %0, i32 noundef %1) #0 {
  %3 = alloca i32, align 4
  %4 = alloca i32, align 4
  %5 = alloca i32, align 4
  %6 = alloca i32, align 4
  %7 = alloca i32, align 4
  store i32 %0, ptr %4, align 4
  store i32 %1, ptr %5, align 4
  call void @llvm.lifetime.start.p0(i64 4, ptr %6) #11
  br label %8

8:                                                ; preds = %18, %2
  %9 = load i32, ptr %4, align 4
  %10 = call i32 (i32, i64, ...) @ioctl(i32 noundef %9, i64 noundef 21537, ptr noundef %5) #11
  store i32 %10, ptr %6, align 4
  br label %11

11:                                               ; preds = %8
  %12 = load i32, ptr %6, align 4
  %13 = icmp eq i32 %12, -1
  br i1 %13, label %14, label %18

14:                                               ; preds = %11
  %15 = call ptr @__errno_location() #12
  %16 = load i32, ptr %15, align 4
  %17 = icmp eq i32 %16, 4
  br label %18

18:                                               ; preds = %14, %11
  %19 = phi i1 [ false, %11 ], [ %17, %14 ]
  br i1 %19, label %8, label %20

20:                                               ; preds = %18
  %21 = load i32, ptr %6, align 4
  %22 = icmp ne i32 %21, 0
  br i1 %22, label %23, label %27

23:                                               ; preds = %20
  %24 = call ptr @__errno_location() #12
  %25 = load i32, ptr %24, align 4
  %26 = sub nsw i32 0, %25
  store i32 %26, ptr %3, align 4
  store i32 1, ptr %7, align 4
  br label %28

27:                                               ; preds = %20
  store i32 0, ptr %3, align 4
  store i32 1, ptr %7, align 4
  br label %28

28:                                               ; preds = %27, %23
  call void @llvm.lifetime.end.p0(i64 4, ptr %6) #11
  %29 = load i32, ptr %3, align 4
  ret i32 %29
}

; Function Attrs: nounwind uwtable
define hidden i32 @uv__socket(i32 noundef %0, i32 noundef %1, i32 noundef %2) #0 {
  %4 = alloca i32, align 4
  %5 = alloca i32, align 4
  %6 = alloca i32, align 4
  %7 = alloca i32, align 4
  %8 = alloca i32, align 4
  %9 = alloca i32, align 4
  %10 = alloca i32, align 4
  store i32 %0, ptr %5, align 4
  store i32 %1, ptr %6, align 4
  store i32 %2, ptr %7, align 4
  call void @llvm.lifetime.start.p0(i64 4, ptr %8) #11
  call void @llvm.lifetime.start.p0(i64 4, ptr %9) #11
  %11 = load i32, ptr %5, align 4
  %12 = load i32, ptr %6, align 4
  %13 = or i32 %12, 2048
  %14 = or i32 %13, 524288
  %15 = load i32, ptr %7, align 4
  %16 = call i32 @socket(i32 noundef %11, i32 noundef %14, i32 noundef %15) #11
  store i32 %16, ptr %8, align 4
  %17 = load i32, ptr %8, align 4
  %18 = icmp ne i32 %17, -1
  br i1 %18, label %19, label %21

19:                                               ; preds = %3
  %20 = load i32, ptr %8, align 4
  store i32 %20, ptr %4, align 4
  store i32 1, ptr %10, align 4
  br label %57

21:                                               ; preds = %3
  %22 = call ptr @__errno_location() #12
  %23 = load i32, ptr %22, align 4
  %24 = icmp ne i32 %23, 22
  br i1 %24, label %25, label %29

25:                                               ; preds = %21
  %26 = call ptr @__errno_location() #12
  %27 = load i32, ptr %26, align 4
  %28 = sub nsw i32 0, %27
  store i32 %28, ptr %4, align 4
  store i32 1, ptr %10, align 4
  br label %57

29:                                               ; preds = %21
  %30 = load i32, ptr %5, align 4
  %31 = load i32, ptr %6, align 4
  %32 = load i32, ptr %7, align 4
  %33 = call i32 @socket(i32 noundef %30, i32 noundef %31, i32 noundef %32) #11
  store i32 %33, ptr %8, align 4
  %34 = load i32, ptr %8, align 4
  %35 = icmp eq i32 %34, -1
  br i1 %35, label %36, label %40

36:                                               ; preds = %29
  %37 = call ptr @__errno_location() #12
  %38 = load i32, ptr %37, align 4
  %39 = sub nsw i32 0, %38
  store i32 %39, ptr %4, align 4
  store i32 1, ptr %10, align 4
  br label %57

40:                                               ; preds = %29
  %41 = load i32, ptr %8, align 4
  %42 = call i32 @uv__nonblock_ioctl(i32 noundef %41, i32 noundef 1)
  store i32 %42, ptr %9, align 4
  %43 = load i32, ptr %9, align 4
  %44 = icmp eq i32 %43, 0
  br i1 %44, label %45, label %48

45:                                               ; preds = %40
  %46 = load i32, ptr %8, align 4
  %47 = call i32 @uv__cloexec(i32 noundef %46, i32 noundef 1)
  store i32 %47, ptr %9, align 4
  br label %48

48:                                               ; preds = %45, %40
  %49 = load i32, ptr %9, align 4
  %50 = icmp ne i32 %49, 0
  br i1 %50, label %51, label %55

51:                                               ; preds = %48
  %52 = load i32, ptr %8, align 4
  %53 = call i32 @uv__close(i32 noundef %52)
  %54 = load i32, ptr %9, align 4
  store i32 %54, ptr %4, align 4
  store i32 1, ptr %10, align 4
  br label %57

55:                                               ; preds = %48
  %56 = load i32, ptr %8, align 4
  store i32 %56, ptr %4, align 4
  store i32 1, ptr %10, align 4
  br label %57

57:                                               ; preds = %55, %51, %36, %25, %19
  call void @llvm.lifetime.end.p0(i64 4, ptr %9) #11
  call void @llvm.lifetime.end.p0(i64 4, ptr %8) #11
  %58 = load i32, ptr %4, align 4
  ret i32 %58
}