; Function Attrs: nounwind uwtable
define hidden i32 @uv__socket(i32 noundef %0, i32 noundef %1, i32 noundef %2) local_unnamed_addr #0 {
  %4 = alloca i32, align 4
  %5 = or i32 %1, 526336
  %6 = tail call i32 @socket(i32 noundef %0, i32 noundef %5, i32 noundef %2) #23
  %.not = icmp eq i32 %6, -1
  br i1 %.not, label %7, label %uv__close.exit

7:                                                ; preds = %3
  %8 = tail call ptr @__errno_location() #24
  %9 = load i32, ptr %8, align 4
  %.not22 = icmp eq i32 %9, 22
  br i1 %.not22, label %12, label %10

10:                                               ; preds = %7
  %11 = sub nsw i32 0, %9
  br label %uv__close.exit

12:                                               ; preds = %7
  %13 = tail call i32 @socket(i32 noundef %0, i32 noundef %1, i32 noundef %2) #23
  %14 = icmp eq i32 %13, -1
  br i1 %14, label %15, label %18

15:                                               ; preds = %12
  %16 = load i32, ptr %8, align 4
  %17 = sub nsw i32 0, %16
  br label %uv__close.exit

18:                                               ; preds = %12
  call void @llvm.lifetime.start.p0(i64 4, ptr nonnull %4)
  store i32 1, ptr %4, align 4
  br label %19

19:                                               ; preds = %21, %18
  %20 = call i32 (i32, i64, ...) @ioctl(i32 noundef %13, i64 noundef 21537, ptr noundef nonnull %4) #23
  switch i32 %20, label %.uv__nonblock_ioctl.exit_crit_edge [
    i32 -1, label %21
    i32 0, label %uv__nonblock_ioctl.exit.thread
  ]

.uv__nonblock_ioctl.exit_crit_edge:               ; preds = %19
  %.pre = load i32, ptr %8, align 4
  br label %uv__nonblock_ioctl.exit

uv__nonblock_ioctl.exit.thread:                   ; preds = %19
  call void @llvm.lifetime.end.p0(i64 4, ptr nonnull %4)
  br label %.preheader

21:                                               ; preds = %19
  %22 = load i32, ptr %8, align 4
  %23 = icmp eq i32 %22, 4
  br i1 %23, label %19, label %uv__nonblock_ioctl.exit

uv__nonblock_ioctl.exit:                          ; preds = %21, %.uv__nonblock_ioctl.exit_crit_edge
  %24 = phi i32 [ %.pre, %.uv__nonblock_ioctl.exit_crit_edge ], [ %22, %21 ]
  call void @llvm.lifetime.end.p0(i64 4, ptr nonnull %4)
  %25 = icmp eq i32 %24, 0
  br i1 %25, label %.preheader, label %uv__cloexec.exit.thread

.preheader:                                       ; preds = %uv__nonblock_ioctl.exit.thread, %uv__nonblock_ioctl.exit
  br label %26

26:                                               ; preds = %.preheader, %28
  %27 = call i32 (i32, i32, ...) @fcntl64(i32 noundef %13, i32 noundef 2, i32 noundef 1) #23
  switch i32 %27, label %..critedge.i25_crit_edge [
    i32 -1, label %28
    i32 0, label %uv__close.exit
  ]

..critedge.i25_crit_edge:                         ; preds = %26
  %.pre32 = load i32, ptr %8, align 4
  br label %uv__cloexec.exit

28:                                               ; preds = %26
  %29 = load i32, ptr %8, align 4
  %30 = icmp eq i32 %29, 4
  br i1 %30, label %26, label %uv__cloexec.exit

uv__cloexec.exit:                                 ; preds = %28, %..critedge.i25_crit_edge
  %31 = phi i32 [ %.pre32, %..critedge.i25_crit_edge ], [ %29, %28 ]
  %.not23 = icmp eq i32 %31, 0
  br i1 %.not23, label %uv__close.exit, label %uv__cloexec.exit.thread

uv__cloexec.exit.thread:                          ; preds = %uv__nonblock_ioctl.exit, %uv__cloexec.exit
  %32 = phi i32 [ %31, %uv__cloexec.exit ], [ %24, %uv__nonblock_ioctl.exit ]
  %.035 = sub nsw i32 0, %32
  %33 = call i64 (i64, ...) @syscall(i64 noundef 3, i32 noundef %13) #23
  %34 = and i64 %33, 4294967295
  %35 = icmp eq i64 %34, 4294967295
  br i1 %35, label %36, label %uv__close.exit

36:                                               ; preds = %uv__cloexec.exit.thread
  store i32 %32, ptr %8, align 4
  br label %uv__close.exit

uv__close.exit:                                   ; preds = %26, %36, %uv__cloexec.exit.thread, %uv__cloexec.exit, %3, %15, %10
  %.017 = phi i32 [ %11, %10 ], [ %17, %15 ], [ %6, %3 ], [ %13, %uv__cloexec.exit ], [ %.035, %uv__cloexec.exit.thread ], [ %.035, %36 ], [ %13, %26 ]
  ret i32 %.017
}